target datalayout = "e-m:e-p270:32:32-p271:32:32-p272:64:64-i64:64-i128:128-f80:128-n8:16:32:64-S128"
target triple = "x86_64-pc-linux-gnu"

%"class.llvm::LLVMContext" = type { ptr }
%"class.llvm::StringRef" = type { ptr, i64 }

@_ZZL16getGlobalContextvE13GlobalContext = internal global %"class.llvm::LLVMContext" zeroinitializer, align 8
@_ZGVZL16getGlobalContextvE13GlobalContext = internal global i64 0, align 8
@__dso_handle = external hidden global i8

; Function Attrs: mustprogress nounwind uwtable
define linkonce_odr hidden noundef ptr @_ZN4llvm4wrapEPKNS_5ValueE(ptr noundef %0) #0 comdat {
  %2 = alloca ptr, align 8
  store ptr %0, ptr %2, align 8
  %3 = load ptr, ptr %2, align 8
  ret ptr %3
}

; Function Attrs: mustprogress nounwind uwtable
define linkonce_odr hidden void @_ZN4llvm9StringRefC2EPKcm(ptr noundef nonnull align 8 dereferenceable(16) %0, ptr noundef %1, i64 noundef %2) unnamed_addr #0 comdat align 2 {
  %4 = alloca ptr, align 8
  %5 = alloca ptr, align 8
  %6 = alloca i64, align 8
  store ptr %0, ptr %4, align 8
  store ptr %1, ptr %5, align 8
  store i64 %2, ptr %6, align 8
  %7 = load ptr, ptr %4, align 8
  %8 = getelementptr inbounds nuw %"class.llvm::StringRef", ptr %7, i32 0, i32 0
  %9 = load ptr, ptr %5, align 8
  store ptr %9, ptr %8, align 8
  %10 = getelementptr inbounds nuw %"class.llvm::StringRef", ptr %7, i32 0, i32 1
  %11 = load i64, ptr %6, align 8
  store i64 %11, ptr %10, align 8
  ret void
}

; Function Attrs: mustprogress nounwind uwtable
define linkonce_odr hidden noundef ptr @_ZN4llvm6unwrapEP17LLVMOpaqueContext(ptr noundef %0) #0 comdat {
  %2 = alloca ptr, align 8
  store ptr %0, ptr %2, align 8
  %3 = load ptr, ptr %2, align 8
  ret ptr %3
}

; Function Attrs: mustprogress nounwind uwtable
define linkonce_odr hidden noundef ptr @_ZN4llvm4wrapEPKNS_11LLVMContextE(ptr noundef %0) #0 comdat {
  %2 = alloca ptr, align 8
  store ptr %0, ptr %2, align 8
  %3 = load ptr, ptr %2, align 8
  ret ptr %3
}

; Function Attrs: mustprogress nounwind uwtable
define internal noundef nonnull align 8 dereferenceable(8) ptr @_ZL16getGlobalContextv() #0 {
  %1 = load atomic i8, ptr @_ZGVZL16getGlobalContextvE13GlobalContext acquire, align 8
  %2 = icmp eq i8 %1, 0
  br i1 %2, label %3, label %8, !prof !4

3:                                                ; preds = %0
  %4 = call i32 @__cxa_guard_acquire(ptr @_ZGVZL16getGlobalContextvE13GlobalContext) #10
  %5 = icmp ne i32 %4, 0
  br i1 %5, label %6, label %8

6:                                                ; preds = %3
  call void @_ZN4llvm11LLVMContextC1Ev(ptr noundef nonnull align 8 dereferenceable(8) @_ZZL16getGlobalContextvE13GlobalContext)
  %7 = call i32 @__cxa_atexit(ptr @_ZN4llvm11LLVMContextD1Ev, ptr @_ZZL16getGlobalContextvE13GlobalContext, ptr @__dso_handle) #10
  call void @__cxa_guard_release(ptr @_ZGVZL16getGlobalContextvE13GlobalContext) #10
  br label %8

8:                                                ; preds = %6, %3, %0
  ret ptr @_ZZL16getGlobalContextvE13GlobalContext
}

; Function Attrs: mustprogress nounwind uwtable
define dso_local ptr @LLVMMDStringInContext(ptr noundef %0, ptr noundef %1, i32 noundef %2) #0 {
  %4 = alloca ptr, align 8
  %5 = alloca ptr, align 8
  %6 = alloca i32, align 4
  %7 = alloca ptr, align 8
  %8 = alloca %"class.llvm::StringRef", align 8
  store ptr %0, ptr %4, align 8
  store ptr %1, ptr %5, align 8
  store i32 %2, ptr %6, align 4
  %9 = load ptr, ptr %4, align 8
  %10 = call noundef ptr @_ZN4llvm6unwrapEP17LLVMOpaqueContext(ptr noundef %9)
  store ptr %10, ptr %7, align 8
  %11 = load ptr, ptr %7, align 8
  %12 = load ptr, ptr %7, align 8
  %13 = load ptr, ptr %5, align 8
  %14 = load i32, ptr %6, align 4
  %15 = zext i32 %14 to i64
  call void @_ZN4llvm9StringRefC2EPKcm(ptr noundef nonnull align 8 dereferenceable(16) %8, ptr noundef %13, i64 noundef %15)
  %16 = getelementptr inbounds nuw { ptr, i64 }, ptr %8, i32 0, i32 0
  %17 = load ptr, ptr %16, align 8
  %18 = getelementptr inbounds nuw { ptr, i64 }, ptr %8, i32 0, i32 1
  %19 = load i64, ptr %18, align 8
  %20 = call noundef ptr @_ZN4llvm8MDString3getERNS_11LLVMContextENS_9StringRefE(ptr noundef nonnull align 8 dereferenceable(8) %12, ptr %17, i64 %19)
  %21 = call noundef ptr @_ZN4llvm15MetadataAsValue3getERNS_11LLVMContextEPNS_8MetadataE(ptr noundef nonnull align 8 dereferenceable(8) %11, ptr noundef %20)
  %22 = call noundef ptr @_ZN4llvm4wrapEPKNS_5ValueE(ptr noundef %21)
  ret ptr %22
}

; Function Attrs: mustprogress nounwind uwtable
define dso_local ptr @LLVMGetGlobalContext() #0 {
  %1 = call noundef nonnull align 8 dereferenceable(8) ptr @_ZL16getGlobalContextv()
  %2 = call noundef ptr @_ZN4llvm4wrapEPKNS_11LLVMContextE(ptr noundef %1)
  ret ptr %2
}

; Function Attrs: mustprogress nounwind uwtable
define dso_local ptr @LLVMMDString(ptr noundef %0, i32 noundef %1) #0 {
  %3 = alloca ptr, align 8
  %4 = alloca i32, align 4
  store ptr %0, ptr %3, align 8
  store i32 %1, ptr %4, align 4
  %5 = call ptr @LLVMGetGlobalContext()
  %6 = load ptr, ptr %3, align 8
  %7 = load i32, ptr %4, align 4
  %8 = call ptr @LLVMMDStringInContext(ptr noundef %5, ptr noundef %6, i32 noundef %7)
  ret ptr %8
}