; Function Attrs: mustprogress nounwind uwtable
define dso_local noundef ptr @LLVMMDString(ptr noundef %0, i32 noundef %1) local_unnamed_addr #0 {
  %3 = load atomic i8, ptr @_ZGVZL16getGlobalContextvE13GlobalContext acquire, align 8
  %4 = icmp eq i8 %3, 0
  br i1 %4, label %5, label %LLVMGetGlobalContext.exit, !prof !4

5:                                                ; preds = %2
  %6 = tail call i32 @__cxa_guard_acquire(ptr nonnull @_ZGVZL16getGlobalContextvE13GlobalContext) #35
  %.not.i.i = icmp eq i32 %6, 0
  br i1 %.not.i.i, label %LLVMGetGlobalContext.exit, label %7

7:                                                ; preds = %5
  tail call void @_ZN4llvm11LLVMContextC1Ev(ptr noundef nonnull align 8 dereferenceable(8) @_ZZL16getGlobalContextvE13GlobalContext) #35
  %8 = tail call i32 @__cxa_atexit(ptr nonnull @_ZN4llvm11LLVMContextD1Ev, ptr nonnull @_ZZL16getGlobalContextvE13GlobalContext, ptr nonnull @__dso_handle) #35
  tail call void @__cxa_guard_release(ptr nonnull @_ZGVZL16getGlobalContextvE13GlobalContext) #35
  br label %LLVMGetGlobalContext.exit

LLVMGetGlobalContext.exit:                        ; preds = %2, %5, %7
  %9 = zext i32 %1 to i64
  %10 = tail call noundef ptr @_ZN4llvm8MDString3getERNS_11LLVMContextENS_9StringRefE(ptr noundef nonnull align 8 dereferenceable(8) @_ZZL16getGlobalContextvE13GlobalContext, ptr %0, i64 %9) #35
  %11 = tail call noundef ptr @_ZN4llvm15MetadataAsValue3getERNS_11LLVMContextEPNS_8MetadataE(ptr noundef nonnull align 8 dereferenceable(8) @_ZZL16getGlobalContextvE13GlobalContext, ptr noundef %10) #35
  ret ptr %11
}